target datalayout = "e-m:e-p270:32:32-p271:32:32-p272:64:64-i64:64-i128:128-f80:128-n8:16:32:64-S128"
target triple = "x86_64-pc-linux-gnu"

%struct.AVChannelLayout = type { i32, i32, %union.anon, ptr }
%union.anon = type { i64 }
%struct.AVCodecContext = type { ptr, i32, i32, ptr, i32, i32, ptr, ptr, ptr, i64, i32, i32, ptr, i32, %struct.AVRational, %struct.AVRational, %struct.AVRational, i32, i32, i32, i32, i32, %struct.AVRational, i32, i32, i32, i32, i32, i32, i32, i32, i32, i32, i32, ptr, ptr, i32, float, float, float, float, float, float, float, float, float, i32, i32, i32, i32, i32, i32, i32, i32, i32, i32, i32, i32, ptr, ptr, ptr, i32, i32, i32, i32, i32, i32, i32, i32, i32, i32, %struct.AVChannelLayout, i32, i32, i32, i32, i32, i32, i32, i32, ptr, i32, i32, i32, float, float, i32, i32, i32, i32, i32, ptr, i64, i64, float, float, i32, i32, ptr, ptr, i32, i32, i32, i32, i32, ptr, ptr, ptr, ptr, i32, i32, [8 x i64], i32, i32, i32, i32, i32, i32, i32, ptr, ptr, i32, i32, i32, i32, i32, i32, i32, i32, i32, i32, ptr, ptr, i32, i32, ptr, ptr, ptr, ptr, i32, i32, i64, i32, i32, i64, ptr, i64, ptr, i32, ptr, i32 }
%struct.AVRational = type { i32, i32 }
%struct.RA144Context = type { ptr, %struct.AudioDSPContext, %struct.LPCContext, %struct.AudioFrameQueue, i32, i32, [2 x [10 x i32]], [2 x ptr], [2 x i32], [160 x i16], [50 x i16], [148 x i16], [4 x i8], [48 x i16] }
%struct.AudioDSPContext = type { ptr, ptr, ptr }
%struct.LPCContext = type { i32, i32, i32, ptr, ptr, ptr, ptr, [2 x %struct.LLSModel] }
%struct.LLSModel = type { [36 x [36 x double]], [32 x [32 x double]], [32 x double], i32, ptr, ptr, [8 x i8] }
%struct.AudioFrameQueue = type { ptr, i32, i32, ptr, i32, i32 }

; Function Attrs: cold nounwind optsize uwtable
define internal i32 @ra144_encode_init(ptr noundef %0) #0 {
  %2 = alloca i32, align 4
  %3 = alloca ptr, align 8
  %4 = alloca ptr, align 8
  %5 = alloca i32, align 4
  %6 = alloca i32, align 4
  store ptr %0, ptr %3, align 8, !tbaa !4
  call void @llvm.lifetime.start.p0(i64 8, ptr %4) #10
  call void @llvm.lifetime.start.p0(i64 4, ptr %5) #10
  %7 = load ptr, ptr %3, align 8, !tbaa !4
  %8 = getelementptr inbounds nuw %struct.AVCodecContext, ptr %7, i32 0, i32 72
  store i32 160, ptr %8, align 8, !tbaa !9
  %9 = load ptr, ptr %3, align 8, !tbaa !4
  %10 = getelementptr inbounds nuw %struct.AVCodecContext, ptr %9, i32 0, i32 72
  %11 = load i32, ptr %10, align 8, !tbaa !9
  %12 = load ptr, ptr %3, align 8, !tbaa !4
  %13 = getelementptr inbounds nuw %struct.AVCodecContext, ptr %12, i32 0, i32 77
  store i32 %11, ptr %13, align 4, !tbaa !29
  %14 = load ptr, ptr %3, align 8, !tbaa !4
  %15 = getelementptr inbounds nuw %struct.AVCodecContext, ptr %14, i32 0, i32 9
  store i64 8000, ptr %15, align 8, !tbaa !30
  %16 = load ptr, ptr %3, align 8, !tbaa !4
  %17 = getelementptr inbounds nuw %struct.AVCodecContext, ptr %16, i32 0, i32 6
  %18 = load ptr, ptr %17, align 8, !tbaa !31
  store ptr %18, ptr %4, align 8, !tbaa !32
  %19 = load ptr, ptr %4, align 8, !tbaa !32
  %20 = getelementptr inbounds nuw %struct.RA144Context, ptr %19, i32 0, i32 6
  %21 = getelementptr inbounds [2 x [10 x i32]], ptr %20, i64 0, i64 0
  %22 = getelementptr inbounds [10 x i32], ptr %21, i64 0, i64 0
  %23 = load ptr, ptr %4, align 8, !tbaa !32
  %24 = getelementptr inbounds nuw %struct.RA144Context, ptr %23, i32 0, i32 7
  %25 = getelementptr inbounds [2 x ptr], ptr %24, i64 0, i64 0
  store ptr %22, ptr %25, align 8, !tbaa !34
  %26 = load ptr, ptr %4, align 8, !tbaa !32
  %27 = getelementptr inbounds nuw %struct.RA144Context, ptr %26, i32 0, i32 6
  %28 = getelementptr inbounds [2 x [10 x i32]], ptr %27, i64 0, i64 1
  %29 = getelementptr inbounds [10 x i32], ptr %28, i64 0, i64 0
  %30 = load ptr, ptr %4, align 8, !tbaa !32
  %31 = getelementptr inbounds nuw %struct.RA144Context, ptr %30, i32 0, i32 7
  %32 = getelementptr inbounds [2 x ptr], ptr %31, i64 0, i64 1
  store ptr %29, ptr %32, align 8, !tbaa !34
  %33 = load ptr, ptr %3, align 8, !tbaa !4
  %34 = load ptr, ptr %4, align 8, !tbaa !32
  %35 = getelementptr inbounds nuw %struct.RA144Context, ptr %34, i32 0, i32 0
  store ptr %33, ptr %35, align 16, !tbaa !35
  %36 = load ptr, ptr %4, align 8, !tbaa !32
  %37 = getelementptr inbounds nuw %struct.RA144Context, ptr %36, i32 0, i32 1
  call void @ff_audiodsp_init(ptr noundef %37)
  %38 = load ptr, ptr %4, align 8, !tbaa !32
  %39 = getelementptr inbounds nuw %struct.RA144Context, ptr %38, i32 0, i32 2
  %40 = load ptr, ptr %3, align 8, !tbaa !4
  %41 = getelementptr inbounds nuw %struct.AVCodecContext, ptr %40, i32 0, i32 72
  %42 = load i32, ptr %41, align 8, !tbaa !9
  %43 = call i32 @ff_lpc_init(ptr noundef %39, i32 noundef %42, i32 noundef 10, i32 noundef 2)
  store i32 %43, ptr %5, align 4, !tbaa !42
  %44 = load i32, ptr %5, align 4, !tbaa !42
  %45 = icmp slt i32 %44, 0
  br i1 %45, label %46, label %48

46:                                               ; preds = %1
  %47 = load i32, ptr %5, align 4, !tbaa !42
  store i32 %47, ptr %2, align 4
  store i32 1, ptr %6, align 4
  br label %52

48:                                               ; preds = %1
  %49 = load ptr, ptr %3, align 8, !tbaa !4
  %50 = load ptr, ptr %4, align 8, !tbaa !32
  %51 = getelementptr inbounds nuw %struct.RA144Context, ptr %50, i32 0, i32 3
  call void @ff_af_queue_init(ptr noundef %49, ptr noundef %51)
  store i32 0, ptr %2, align 4
  store i32 1, ptr %6, align 4
  br label %52

52:                                               ; preds = %48, %46
  call void @llvm.lifetime.end.p0(i64 4, ptr %5) #10
  call void @llvm.lifetime.end.p0(i64 8, ptr %4) #10
  %53 = load i32, ptr %2, align 4
  ret i32 %53
}