; Function Attrs: cold nounwind optsize uwtable
define internal range(i32 -2147483648, 1) i32 @ra144_encode_init(ptr noundef initializes((56, 64), (376, 380), (396, 400)) %0) #0 {
  %2 = getelementptr inbounds nuw i8, ptr %0, i64 376
  store i32 160, ptr %2, align 8, !tbaa !4
  %3 = getelementptr inbounds nuw i8, ptr %0, i64 396
  store i32 160, ptr %3, align 4, !tbaa !27
  %4 = getelementptr inbounds nuw i8, ptr %0, i64 56
  store i64 8000, ptr %4, align 8, !tbaa !28
  %5 = getelementptr inbounds nuw i8, ptr %0, i64 32
  %6 = load ptr, ptr %5, align 8, !tbaa !29
  %7 = getelementptr inbounds nuw i8, ptr %6, i64 37816
  %8 = getelementptr inbounds nuw i8, ptr %6, i64 37896
  store ptr %7, ptr %8, align 8, !tbaa !30
  %9 = getelementptr inbounds nuw i8, ptr %6, i64 37856
  %10 = getelementptr inbounds nuw i8, ptr %6, i64 37904
  store ptr %9, ptr %10, align 8, !tbaa !30
  store ptr %0, ptr %6, align 16, !tbaa !31
  %11 = getelementptr inbounds nuw i8, ptr %6, i64 8
  tail call void @ff_audiodsp_init(ptr noundef nonnull %11) #9
  %12 = getelementptr inbounds nuw i8, ptr %6, i64 32
  %13 = load i32, ptr %2, align 8, !tbaa !4
  %14 = tail call i32 @ff_lpc_init(ptr noundef nonnull %12, i32 noundef %13, i32 noundef 10, i32 noundef 2) #9
  %15 = icmp slt i32 %14, 0
  br i1 %15, label %18, label %16

16:                                               ; preds = %1
  %17 = getelementptr inbounds nuw i8, ptr %6, i64 37776
  tail call void @ff_af_queue_init(ptr noundef nonnull %0, ptr noundef nonnull %17) #9
  br label %18

18:                                               ; preds = %1, %16
  %.0 = phi i32 [ 0, %16 ], [ %14, %1 ]
  ret i32 %.0
}